target datalayout = "e-m:e-p270:32:32-p271:32:32-p272:64:64-i64:64-i128:128-f80:128-n8:16:32:64-S128"
target triple = "x86_64-pc-linux-gnu"

%struct._asn1_ctx_t = type { i32, i32, i8, ptr, ptr, ptr, ptr, ptr, %struct.anon, %struct.anon.2, %struct.anon.3, ptr }
%struct.anon = type { i32, i8, i8, i8, ptr, ptr, i32, i32, ptr, ptr, ptr, %union.anon }
%union.anon = type { %struct.anon.0 }
%struct.anon.0 = type { ptr }
%struct.anon.2 = type { ptr, ptr, ptr }
%struct.anon.3 = type { i32, i8, ptr, i32, i32, ptr, ptr, ptr, %union.anon.4 }
%union.anon.4 = type { %struct.anon.5 }
%struct.anon.5 = type { ptr }
%struct.mms_actx_private_data_t = type { i32, i32, i32, i32, i32, i16, ptr, i32, i32, i32, ptr, ptr, i32 }
%struct.nstime_t = type { i64, i32 }
%struct._mms_transaction_t = type { i32, i32, %struct.nstime_t, i32, i32 }

@hf_mms_iec61850_bufovfl = internal global i32 0, align 4
@hf_mms_iec61850_ctlval = internal global i32 0, align 4
@hf_mms_iec61850_test = internal global i32 0, align 4

; Function Attrs: null_pointer_is_valid sspstrong uwtable
define internal i32 @dissect_mms_T_boolean(i1 noundef zeroext %0, ptr noundef %1, i32 noundef %2, ptr noundef %3, ptr noundef %4, i32 noundef %5) #0 {
  %7 = alloca i8, align 1
  %8 = alloca ptr, align 8
  %9 = alloca i32, align 4
  %10 = alloca ptr, align 8
  %11 = alloca ptr, align 8
  %12 = alloca i32, align 4
  %13 = alloca ptr, align 8
  %14 = zext i1 %0 to i8
  store i8 %14, ptr %7, align 1
  store ptr %1, ptr %8, align 8
  store i32 %2, ptr %9, align 4
  store ptr %3, ptr %10, align 8
  store ptr %4, ptr %11, align 8
  store i32 %5, ptr %12, align 4
  call void @llvm.lifetime.start.p0(i64 8, ptr %13) #8
  %15 = load ptr, ptr %10, align 8
  %16 = getelementptr inbounds nuw %struct._asn1_ctx_t, ptr %15, i32 0, i32 7
  %17 = load ptr, ptr %16, align 8
  store ptr %17, ptr %13, align 8
  %18 = load ptr, ptr %13, align 8
  %19 = icmp ne ptr %18, null
  br i1 %19, label %20, label %63

20:                                               ; preds = %6
  %21 = load ptr, ptr %13, align 8
  %22 = getelementptr inbounds nuw %struct.mms_actx_private_data_t, ptr %21, i32 0, i32 10
  %23 = load ptr, ptr %22, align 8
  %24 = icmp ne ptr %23, null
  br i1 %24, label %25, label %63

25:                                               ; preds = %20
  %26 = load ptr, ptr %13, align 8
  %27 = getelementptr inbounds nuw %struct.mms_actx_private_data_t, ptr %26, i32 0, i32 2
  %28 = load i32, ptr %27, align 8
  %29 = icmp eq i32 %28, 1
  br i1 %29, label %30, label %38

30:                                               ; preds = %25
  %31 = load ptr, ptr %13, align 8
  %32 = getelementptr inbounds nuw %struct.mms_actx_private_data_t, ptr %31, i32 0, i32 3
  %33 = load i32, ptr %32, align 4
  %34 = icmp eq i32 %33, 6
  br i1 %34, label %35, label %37

35:                                               ; preds = %30
  %36 = load i32, ptr @hf_mms_iec61850_bufovfl, align 4
  store i32 %36, ptr %12, align 4
  br label %37

37:                                               ; preds = %35, %30
  br label %62

38:                                               ; preds = %25
  %39 = load ptr, ptr %13, align 8
  %40 = getelementptr inbounds nuw %struct.mms_actx_private_data_t, ptr %39, i32 0, i32 10
  %41 = load ptr, ptr %40, align 8
  %42 = getelementptr inbounds nuw %struct._mms_transaction_t, ptr %41, i32 0, i32 4
  %43 = load i32, ptr %42, align 4
  %44 = icmp eq i32 %43, 5
  br i1 %44, label %45, label %61

45:                                               ; preds = %38
  %46 = load ptr, ptr %13, align 8
  %47 = getelementptr inbounds nuw %struct.mms_actx_private_data_t, ptr %46, i32 0, i32 4
  %48 = load i32, ptr %47, align 8
  %49 = icmp eq i32 %48, 2
  br i1 %49, label %50, label %52

50:                                               ; preds = %45
  %51 = load i32, ptr @hf_mms_iec61850_ctlval, align 4
  store i32 %51, ptr %12, align 4
  br label %60

52:                                               ; preds = %45
  %53 = load ptr, ptr %13, align 8
  %54 = getelementptr inbounds nuw %struct.mms_actx_private_data_t, ptr %53, i32 0, i32 4
  %55 = load i32, ptr %54, align 8
  %56 = icmp eq i32 %55, 9
  br i1 %56, label %57, label %59

57:                                               ; preds = %52
  %58 = load i32, ptr @hf_mms_iec61850_test, align 4
  store i32 %58, ptr %12, align 4
  br label %59

59:                                               ; preds = %57, %52
  br label %60

60:                                               ; preds = %59, %50
  br label %61

61:                                               ; preds = %60, %38
  br label %62

62:                                               ; preds = %61, %37
  br label %63

63:                                               ; preds = %62, %20, %6
  %64 = load i8, ptr %7, align 1, !range !6, !noundef !7
  %65 = trunc i8 %64 to i1
  %66 = load ptr, ptr %10, align 8
  %67 = load ptr, ptr %11, align 8
  %68 = load ptr, ptr %8, align 8
  %69 = load i32, ptr %9, align 4
  %70 = load i32, ptr %12, align 4
  %71 = call i32 @dissect_ber_boolean(i1 noundef zeroext %65, ptr noundef %66, ptr noundef %67, ptr noundef %68, i32 noundef %69, i32 noundef %70, ptr noundef null)
  store i32 %71, ptr %9, align 4
  %72 = load i32, ptr %9, align 4
  call void @llvm.lifetime.end.p0(i64 8, ptr %13) #8
  ret i32 %72
}