; Function Attrs: null_pointer_is_valid sspstrong uwtable
define internal i32 @dissect_mms_T_boolean(i1 noundef zeroext %0, ptr noundef %1, i32 noundef %2, ptr noundef %3, ptr noundef %4, i32 noundef %5) #0 {
  %7 = getelementptr inbounds nuw i8, ptr %3, i64 48
  %8 = load ptr, ptr %7, align 8
  %.not = icmp eq ptr %8, null
  br i1 %.not, label %32, label %9

9:                                                ; preds = %6
  %10 = getelementptr inbounds nuw i8, ptr %8, i64 48
  %11 = load ptr, ptr %10, align 8
  %.not17 = icmp eq ptr %11, null
  br i1 %.not17, label %32, label %12

12:                                               ; preds = %9
  %13 = getelementptr inbounds nuw i8, ptr %8, i64 8
  %14 = load i32, ptr %13, align 8
  %15 = icmp eq i32 %14, 1
  br i1 %15, label %16, label %21

16:                                               ; preds = %12
  %17 = getelementptr inbounds nuw i8, ptr %8, i64 12
  %18 = load i32, ptr %17, align 4
  %19 = icmp eq i32 %18, 6
  %20 = load i32, ptr @hf_mms_iec61850_bufovfl, align 4
  %spec.select = select i1 %19, i32 %20, i32 %5
  br label %32

21:                                               ; preds = %12
  %22 = getelementptr inbounds nuw i8, ptr %11, i64 28
  %23 = load i32, ptr %22, align 4
  %24 = icmp eq i32 %23, 5
  br i1 %24, label %25, label %32

25:                                               ; preds = %21
  %26 = getelementptr inbounds nuw i8, ptr %8, i64 16
  %27 = load i32, ptr %26, align 8
  switch i32 %27, label %32 [
    i32 2, label %28
    i32 9, label %30
  ]

28:                                               ; preds = %25
  %29 = load i32, ptr @hf_mms_iec61850_ctlval, align 4
  br label %32

30:                                               ; preds = %25
  %31 = load i32, ptr @hf_mms_iec61850_test, align 4
  br label %32

32:                                               ; preds = %16, %25, %28, %30, %21, %9, %6
  %.0 = phi i32 [ %29, %28 ], [ %31, %30 ], [ %5, %21 ], [ %5, %9 ], [ %5, %6 ], [ %spec.select, %16 ], [ %5, %25 ]
  %33 = tail call i32 @dissect_ber_boolean(i1 noundef zeroext %0, ptr noundef %3, ptr noundef %4, ptr noundef %1, i32 noundef %2, i32 noundef %.0, ptr noundef null)
  ret i32 %33
}